#include <math.h>
#include <stdio.h>
#include <stdlib.h>
#include <string.h>

int main(){
	int n;
	char a[1000];
	scanf("%d",&n);
	for (int i = 0; i < n; i++) {
		scanf("%s",a);
		int len = strlen(a);
		for (int j = 0;j < len; j++){
			char ans;
			switch (a[j]) {
				case 'A': ans = 'T';break;
				case 'T': ans = 'A';break;
				case 'G': ans = 'C';break;
				case 'C': ans = 'G';break;
			}
			printf("%c", ans );
		}
		printf("\n");
	}
	

}