; ModuleID = '33/2987.c'
source_filename = "33/2987.c"
target datalayout = "e-m:e-p270:32:32-p271:32:32-p272:64:64-i64:64-f80:128-n8:16:32:64-S128"
target triple = "x86_64-pc-linux-gnu"

@.str = private unnamed_addr constant [3 x i8] c"%d\00", align 1
@.str.1 = private unnamed_addr constant [3 x i8] c"%s\00", align 1
@.str.2 = private unnamed_addr constant [3 x i8] c"%c\00", align 1
@.str.3 = private unnamed_addr constant [2 x i8] c"\0A\00", align 1

; Function Attrs: noinline nounwind uwtable
define dso_local i32 @main() #0 {
  %1 = alloca i32, align 4
  %2 = alloca i32, align 4
  %3 = alloca [1000 x i8], align 16
  %4 = alloca i32, align 4
  %5 = alloca i32, align 4
  %6 = alloca i32, align 4
  %7 = alloca i8, align 1
  store i32 0, i32* %1, align 4
  %8 = call i32 (i8*, ...) @__isoc99_scanf(i8* getelementptr inbounds ([3 x i8], [3 x i8]* @.str, i64 0, i64 0), i32* %2)
  store i32 0, i32* %4, align 4
  br label %9

9:                                                ; preds = %42, %0
  %10 = load i32, i32* %4, align 4
  %11 = load i32, i32* %2, align 4
  %12 = icmp slt i32 %10, %11
  br i1 %12, label %13, label %45

13:                                               ; preds = %9
  %14 = getelementptr inbounds [1000 x i8], [1000 x i8]* %3, i64 0, i64 0
  %15 = call i32 (i8*, ...) @__isoc99_scanf(i8* getelementptr inbounds ([3 x i8], [3 x i8]* @.str.1, i64 0, i64 0), i8* %14)
  %16 = getelementptr inbounds [1000 x i8], [1000 x i8]* %3, i64 0, i64 0
  %17 = call i64 @strlen(i8* %16) #3
  %18 = trunc i64 %17 to i32
  store i32 %18, i32* %5, align 4
  store i32 0, i32* %6, align 4
  br label %19

19:                                               ; preds = %37, %13
  %20 = load i32, i32* %6, align 4
  %21 = load i32, i32* %5, align 4
  %22 = icmp slt i32 %20, %21
  br i1 %22, label %23, label %40

23:                                               ; preds = %19
  %24 = load i32, i32* %6, align 4
  %25 = sext i32 %24 to i64
  %26 = getelementptr inbounds [1000 x i8], [1000 x i8]* %3, i64 0, i64 %25
  %27 = load i8, i8* %26, align 1
  %28 = sext i8 %27 to i32
  switch i32 %28, label %33 [
    i32 65, label %29
    i32 84, label %30
    i32 71, label %31
    i32 67, label %32
  ]

29:                                               ; preds = %23
  store i8 84, i8* %7, align 1
  br label %33

30:                                               ; preds = %23
  store i8 65, i8* %7, align 1
  br label %33

31:                                               ; preds = %23
  store i8 67, i8* %7, align 1
  br label %33

32:                                               ; preds = %23
  store i8 71, i8* %7, align 1
  br label %33

33:                                               ; preds = %23, %32, %31, %30, %29
  %34 = load i8, i8* %7, align 1
  %35 = sext i8 %34 to i32
  %36 = call i32 (i8*, ...) @printf(i8* getelementptr inbounds ([3 x i8], [3 x i8]* @.str.2, i64 0, i64 0), i32 %35)
  br label %37

37:                                               ; preds = %33
  %38 = load i32, i32* %6, align 4
  %39 = add nsw i32 %38, 1
  store i32 %39, i32* %6, align 4
  br label %19

40:                                               ; preds = %19
  %41 = call i32 (i8*, ...) @printf(i8* getelementptr inbounds ([2 x i8], [2 x i8]* @.str.3, i64 0, i64 0))
  br label %42

42:                                               ; preds = %40
  %43 = load i32, i32* %4, align 4
  %44 = add nsw i32 %43, 1
  store i32 %44, i32* %4, align 4
  br label %9

45:                                               ; preds = %9
  %46 = load i32, i32* %1, align 4
  ret i32 %46
}

declare dso_local i32 @__isoc99_scanf(i8*, ...) #1

; Function Attrs: nounwind readonly
declare dso_local i64 @strlen(i8*) #2

declare dso_local i32 @printf(i8*, ...) #1


!llvm.module.flags = !{!0}
!llvm.ident = !{!1}

!0 = !{i32 1, !"wchar_size", i32 4}
!1 = !{!"clang version 10.0.0-4ubuntu1 "}
