; ModuleID = 'source-C-CXX/32/2987.c'
source_filename = "source-C-CXX/32/2987.c"
target datalayout = "e-m:e-p270:32:32-p271:32:32-p272:64:64-i64:64-f80:128-n8:16:32:64-S128"
target triple = "x86_64-pc-linux-gnu"

@.str = private unnamed_addr constant [3 x i8] c"%d\00", align 1
@.str.1 = private unnamed_addr constant [3 x i8] c"%s\00", align 1

; Function Attrs: nofree nounwind sspstrong uwtable
define dso_local i32 @main() local_unnamed_addr #0 {
  %1 = alloca i32, align 4
  %2 = alloca [1000 x i8], align 16
  %3 = bitcast i32* %1 to i8*
  call void @llvm.lifetime.start.p0i8(i64 4, i8* nonnull %3) #5
  %4 = getelementptr inbounds [1000 x i8], [1000 x i8]* %2, i64 0, i64 0
  call void @llvm.lifetime.start.p0i8(i64 1000, i8* nonnull %4) #5
  %5 = call i32 (i8*, ...) @__isoc99_scanf(i8* getelementptr inbounds ([3 x i8], [3 x i8]* @.str, i64 0, i64 0), i32* nonnull %1)
  %6 = load i32, i32* %1, align 4, !tbaa !5
  %7 = icmp sgt i32 %6, 0
  br i1 %7, label %9, label %8

8:                                                ; preds = %18, %0
  call void @llvm.lifetime.end.p0i8(i64 1000, i8* nonnull %4) #5
  call void @llvm.lifetime.end.p0i8(i64 4, i8* nonnull %3) #5
  ret i32 0

9:                                                ; preds = %0, %18
  %10 = phi i8 [ %19, %18 ], [ undef, %0 ]
  %11 = phi i32 [ %21, %18 ], [ 0, %0 ]
  %12 = call i32 (i8*, ...) @__isoc99_scanf(i8* getelementptr inbounds ([3 x i8], [3 x i8]* @.str.1, i64 0, i64 0), i8* nonnull %4)
  %13 = call i64 @strlen(i8* noundef nonnull %4) #6
  %14 = trunc i64 %13 to i32
  %15 = icmp sgt i32 %14, 0
  br i1 %15, label %16, label %18

16:                                               ; preds = %9
  %17 = and i64 %13, 4294967295
  br label %24

18:                                               ; preds = %34, %9
  %19 = phi i8 [ %10, %9 ], [ %35, %34 ]
  %20 = call i32 @putchar(i32 10)
  %21 = add nuw nsw i32 %11, 1
  %22 = load i32, i32* %1, align 4, !tbaa !5
  %23 = icmp slt i32 %21, %22
  br i1 %23, label %9, label %8, !llvm.loop !9

24:                                               ; preds = %16, %34
  %25 = phi i64 [ 0, %16 ], [ %38, %34 ]
  %26 = phi i8 [ %10, %16 ], [ %35, %34 ]
  %27 = getelementptr inbounds [1000 x i8], [1000 x i8]* %2, i64 0, i64 %25
  %28 = load i8, i8* %27, align 1, !tbaa !11
  %29 = sext i8 %28 to i32
  switch i32 %29, label %34 [
    i32 65, label %30
    i32 84, label %31
    i32 71, label %32
    i32 67, label %33
  ]

30:                                               ; preds = %24
  br label %34

31:                                               ; preds = %24
  br label %34

32:                                               ; preds = %24
  br label %34

33:                                               ; preds = %24
  br label %34

34:                                               ; preds = %24, %33, %32, %31, %30
  %35 = phi i8 [ %26, %24 ], [ 71, %33 ], [ 67, %32 ], [ 65, %31 ], [ 84, %30 ]
  %36 = sext i8 %35 to i32
  %37 = call i32 @putchar(i32 %36)
  %38 = add nuw nsw i64 %25, 1
  %39 = icmp eq i64 %38, %17
  br i1 %39, label %18, label %24, !llvm.loop !12
}

; Function Attrs: argmemonly mustprogress nofree nosync nounwind willreturn
declare void @llvm.lifetime.start.p0i8(i64 immarg, i8* nocapture) #1

; Function Attrs: nofree nounwind
declare noundef i32 @__isoc99_scanf(i8* nocapture noundef readonly, ...) local_unnamed_addr #2

; Function Attrs: argmemonly mustprogress nofree nounwind readonly willreturn
declare i64 @strlen(i8* nocapture) local_unnamed_addr #3

; Function Attrs: argmemonly mustprogress nofree nosync nounwind willreturn
declare void @llvm.lifetime.end.p0i8(i64 immarg, i8* nocapture) #1

; Function Attrs: nofree nounwind
declare noundef i32 @putchar(i32 noundef) local_unnamed_addr #4


!llvm.module.flags = !{!0, !1, !2, !3}
!llvm.ident = !{!4}

!0 = !{i32 1, !"wchar_size", i32 4}
!1 = !{i32 7, !"PIC Level", i32 2}
!2 = !{i32 7, !"PIE Level", i32 2}
!3 = !{i32 7, !"uwtable", i32 1}
!4 = !{!"clang version 13.0.0"}
!5 = !{!6, !6, i64 0}
!6 = !{!"int", !7, i64 0}
!7 = !{!"omnipotent char", !8, i64 0}
!8 = !{!"Simple C/C++ TBAA"}
!9 = distinct !{!9, !10}
!10 = !{!"llvm.loop.mustprogress"}
!11 = !{!7, !7, i64 0}
!12 = distinct !{!12, !10}
